target datalayout = "e-m:e-p270:32:32-p271:32:32-p272:64:64-i64:64-i128:128-f80:128-n8:16:32:64-S128"
target triple = "x86_64-pc-linux-gnu"

%struct.PROCLOCKTAG = type { ptr, ptr }
%struct.LOCK = type { %struct.LOCKTAG, i32, i32, %struct.dlist_head, %struct.dclist_head, [10 x i32], i32, [10 x i32], i32 }
%struct.LOCKTAG = type { i32, i32, i32, i16, i8, i8 }
%struct.dlist_head = type { %struct.dlist_node }
%struct.dlist_node = type { ptr, ptr }
%struct.dclist_head = type { %struct.dlist_head, i32 }
%struct.LockMethodData = type { i32, ptr, ptr, ptr }
%struct.LWLock = type { i16, %struct.pg_atomic_uint32, %struct.proclist_head }
%struct.pg_atomic_uint32 = type { i32 }
%struct.proclist_head = type { i32, i32 }
%struct.PROCLOCK = type { %struct.PROCLOCKTAG, ptr, i32, i32, %struct.dlist_node, %struct.dlist_node }
%struct.PGPROC = type { %struct.dlist_node, ptr, ptr, i32, %struct.Latch, i32, i32, i32, i32, %struct.anon, i32, i32, i32, i8, i8, i8, i8, %struct.proclist_node, %struct.proclist_node, ptr, ptr, i32, i32, %struct.pg_atomic_uint64, i32, i8, i64, i32, %struct.dlist_node, [16 x %struct.dlist_head], %struct.XidCacheStatus, %struct.XidCache, i8, %struct.pg_atomic_uint32, i32, i32, i8, %struct.pg_atomic_uint32, i32, i32, i64, i64, %struct.LWLock, ptr, ptr, i8, i32, ptr, %struct.dlist_head, %struct.dlist_node }
%struct.Latch = type { i32, i32, i8, i32 }
%struct.anon = type { i32, i32 }
%struct.proclist_node = type { i32, i32 }
%struct.pg_atomic_uint64 = type { i64 }
%struct.XidCacheStatus = type { i8, i8 }
%struct.XidCache = type { [64 x i32] }
%struct.dlist_iter = type { ptr, ptr }

@.str.5 = private unnamed_addr constant [7 x i8] c"lock.c\00", align 1
@MyProc = external global ptr, align 8
@.str.14 = private unnamed_addr constant [33 x i8] c"proclocks held do not match lock\00", align 1
@__func__.LockCheckConflicts = private unnamed_addr constant [19 x i8] c"LockCheckConflicts\00", align 1

; Function Attrs: nounwind uwtable
define dso_local zeroext i1 @LockCheckConflicts(ptr noundef %0, i32 noundef %1, ptr noundef %2, ptr noundef %3) #0 {
  %5 = alloca i1, align 1
  %6 = alloca ptr, align 8
  %7 = alloca i32, align 4
  %8 = alloca ptr, align 8
  %9 = alloca ptr, align 8
  %10 = alloca i32, align 4
  %11 = alloca i32, align 4
  %12 = alloca i32, align 4
  %13 = alloca [10 x i32], align 16
  %14 = alloca i32, align 4
  %15 = alloca %struct.dlist_iter, align 8
  %16 = alloca i32, align 4
  %17 = alloca i32, align 4
  %18 = alloca i32, align 4
  %19 = alloca i32, align 4
  %20 = alloca ptr, align 8
  %21 = alloca i32, align 4
  %22 = alloca i32, align 4
  %23 = alloca i32, align 4
  store ptr %0, ptr %6, align 8
  store i32 %1, ptr %7, align 4
  store ptr %2, ptr %8, align 8
  store ptr %3, ptr %9, align 8
  call void @llvm.lifetime.start.p0(i64 4, ptr %10) #9
  %24 = load ptr, ptr %6, align 8
  %25 = getelementptr inbounds nuw %struct.LockMethodData, ptr %24, i32 0, i32 0
  %26 = load i32, ptr %25, align 8
  store i32 %26, ptr %10, align 4
  call void @llvm.lifetime.start.p0(i64 4, ptr %11) #9
  call void @llvm.lifetime.start.p0(i64 4, ptr %12) #9
  %27 = load ptr, ptr %6, align 8
  %28 = getelementptr inbounds nuw %struct.LockMethodData, ptr %27, i32 0, i32 1
  %29 = load ptr, ptr %28, align 8
  %30 = load i32, ptr %7, align 4
  %31 = sext i32 %30 to i64
  %32 = getelementptr inbounds i32, ptr %29, i64 %31
  %33 = load i32, ptr %32, align 4
  store i32 %33, ptr %12, align 4
  call void @llvm.lifetime.start.p0(i64 40, ptr %13) #9
  call void @llvm.lifetime.start.p0(i64 4, ptr %14) #9
  store i32 0, ptr %14, align 4
  call void @llvm.lifetime.start.p0(i64 16, ptr %15) #9
  call void @llvm.lifetime.start.p0(i64 4, ptr %16) #9
  %34 = load i32, ptr %12, align 4
  %35 = load ptr, ptr %8, align 8
  %36 = getelementptr inbounds nuw %struct.LOCK, ptr %35, i32 0, i32 1
  %37 = load i32, ptr %36, align 8
  %38 = and i32 %34, %37
  %39 = icmp ne i32 %38, 0
  br i1 %39, label %41, label %40

40:                                               ; preds = %4
  store i1 false, ptr %5, align 1
  store i32 1, ptr %17, align 4
  br label %239

41:                                               ; preds = %4
  %42 = load ptr, ptr %9, align 8
  %43 = getelementptr inbounds nuw %struct.PROCLOCK, ptr %42, i32 0, i32 2
  %44 = load i32, ptr %43, align 8
  store i32 %44, ptr %11, align 4
  store i32 1, ptr %16, align 4
  br label %45

45:                                               ; preds = %87, %41
  %46 = load i32, ptr %16, align 4
  %47 = load i32, ptr %10, align 4
  %48 = icmp sle i32 %46, %47
  br i1 %48, label %49, label %90

49:                                               ; preds = %45
  %50 = load i32, ptr %12, align 4
  %51 = load i32, ptr %16, align 4
  %52 = shl i32 1, %51
  %53 = and i32 %50, %52
  %54 = icmp eq i32 %53, 0
  br i1 %54, label %55, label %59

55:                                               ; preds = %49
  %56 = load i32, ptr %16, align 4
  %57 = sext i32 %56 to i64
  %58 = getelementptr inbounds [10 x i32], ptr %13, i64 0, i64 %57
  store i32 0, ptr %58, align 4
  br label %87

59:                                               ; preds = %49
  %60 = load ptr, ptr %8, align 8
  %61 = getelementptr inbounds nuw %struct.LOCK, ptr %60, i32 0, i32 7
  %62 = load i32, ptr %16, align 4
  %63 = sext i32 %62 to i64
  %64 = getelementptr inbounds [10 x i32], ptr %61, i64 0, i64 %63
  %65 = load i32, ptr %64, align 4
  %66 = load i32, ptr %16, align 4
  %67 = sext i32 %66 to i64
  %68 = getelementptr inbounds [10 x i32], ptr %13, i64 0, i64 %67
  store i32 %65, ptr %68, align 4
  %69 = load i32, ptr %11, align 4
  %70 = load i32, ptr %16, align 4
  %71 = shl i32 1, %70
  %72 = and i32 %69, %71
  %73 = icmp ne i32 %72, 0
  br i1 %73, label %74, label %80

74:                                               ; preds = %59
  %75 = load i32, ptr %16, align 4
  %76 = sext i32 %75 to i64
  %77 = getelementptr inbounds [10 x i32], ptr %13, i64 0, i64 %76
  %78 = load i32, ptr %77, align 4
  %79 = add i32 %78, -1
  store i32 %79, ptr %77, align 4
  br label %80

80:                                               ; preds = %74, %59
  %81 = load i32, ptr %16, align 4
  %82 = sext i32 %81 to i64
  %83 = getelementptr inbounds [10 x i32], ptr %13, i64 0, i64 %82
  %84 = load i32, ptr %83, align 4
  %85 = load i32, ptr %14, align 4
  %86 = add i32 %85, %84
  store i32 %86, ptr %14, align 4
  br label %87

87:                                               ; preds = %80, %55
  %88 = load i32, ptr %16, align 4
  %89 = add i32 %88, 1
  store i32 %89, ptr %16, align 4
  br label %45, !llvm.loop !23

90:                                               ; preds = %45
  %91 = load i32, ptr %14, align 4
  %92 = icmp eq i32 %91, 0
  br i1 %92, label %93, label %94

93:                                               ; preds = %90
  store i1 false, ptr %5, align 1
  store i32 1, ptr %17, align 4
  br label %239

94:                                               ; preds = %90
  %95 = load ptr, ptr %9, align 8
  %96 = getelementptr inbounds nuw %struct.PROCLOCK, ptr %95, i32 0, i32 1
  %97 = load ptr, ptr %96, align 8
  %98 = load ptr, ptr @MyProc, align 8
  %99 = icmp eq ptr %97, %98
  br i1 %99, label %100, label %106

100:                                              ; preds = %94
  %101 = load ptr, ptr @MyProc, align 8
  %102 = getelementptr inbounds nuw %struct.PGPROC, ptr %101, i32 0, i32 47
  %103 = load ptr, ptr %102, align 8
  %104 = icmp eq ptr %103, null
  br i1 %104, label %105, label %106

105:                                              ; preds = %100
  store i1 true, ptr %5, align 1
  store i32 1, ptr %17, align 4
  br label %239

106:                                              ; preds = %100, %94
  %107 = load ptr, ptr %8, align 8
  %108 = getelementptr inbounds nuw %struct.LOCK, ptr %107, i32 0, i32 0
  %109 = getelementptr inbounds nuw %struct.LOCKTAG, ptr %108, i32 0, i32 4
  %110 = load i8, ptr %109, align 2
  %111 = zext i8 %110 to i32
  %112 = icmp eq i32 %111, 1
  br i1 %112, label %113, label %114

113:                                              ; preds = %106
  store i1 true, ptr %5, align 1
  store i32 1, ptr %17, align 4
  br label %239

114:                                              ; preds = %106
  br label %115

115:                                              ; preds = %114
  br label %116

116:                                              ; preds = %115
  br label %117

117:                                              ; preds = %116
  store i32 1, ptr %18, align 4
  br label %118

118:                                              ; preds = %117
  br label %119

119:                                              ; preds = %118
  br label %120

120:                                              ; preds = %119
  store i32 1, ptr %19, align 4
  %121 = load ptr, ptr %8, align 8
  %122 = getelementptr inbounds nuw %struct.LOCK, ptr %121, i32 0, i32 3
  %123 = getelementptr inbounds nuw %struct.dlist_head, ptr %122, i32 0, i32 0
  %124 = getelementptr inbounds nuw %struct.dlist_iter, ptr %15, i32 0, i32 1
  store ptr %123, ptr %124, align 8
  %125 = getelementptr inbounds nuw %struct.dlist_iter, ptr %15, i32 0, i32 1
  %126 = load ptr, ptr %125, align 8
  %127 = getelementptr inbounds nuw %struct.dlist_node, ptr %126, i32 0, i32 1
  %128 = load ptr, ptr %127, align 8
  %129 = icmp ne ptr %128, null
  br i1 %129, label %130, label %135

130:                                              ; preds = %120
  %131 = getelementptr inbounds nuw %struct.dlist_iter, ptr %15, i32 0, i32 1
  %132 = load ptr, ptr %131, align 8
  %133 = getelementptr inbounds nuw %struct.dlist_node, ptr %132, i32 0, i32 1
  %134 = load ptr, ptr %133, align 8
  br label %138

135:                                              ; preds = %120
  %136 = getelementptr inbounds nuw %struct.dlist_iter, ptr %15, i32 0, i32 1
  %137 = load ptr, ptr %136, align 8
  br label %138

138:                                              ; preds = %135, %130
  %139 = phi ptr [ %134, %130 ], [ %137, %135 ]
  %140 = getelementptr inbounds nuw %struct.dlist_iter, ptr %15, i32 0, i32 0
  store ptr %139, ptr %140, align 8
  br label %141

141:                                              ; preds = %232, %138
  %142 = getelementptr inbounds nuw %struct.dlist_iter, ptr %15, i32 0, i32 0
  %143 = load ptr, ptr %142, align 8
  %144 = getelementptr inbounds nuw %struct.dlist_iter, ptr %15, i32 0, i32 1
  %145 = load ptr, ptr %144, align 8
  %146 = icmp ne ptr %143, %145
  br i1 %146, label %147, label %238

147:                                              ; preds = %141
  call void @llvm.lifetime.start.p0(i64 8, ptr %20) #9
  br label %148

148:                                              ; preds = %147
  br label %149

149:                                              ; preds = %148
  br label %150

150:                                              ; preds = %149
  store i32 1, ptr %21, align 4
  br label %151

151:                                              ; preds = %150
  br label %152

152:                                              ; preds = %151
  br label %153

153:                                              ; preds = %152
  store i32 1, ptr %22, align 4
  %154 = getelementptr inbounds nuw %struct.dlist_iter, ptr %15, i32 0, i32 0
  %155 = load ptr, ptr %154, align 8
  %156 = getelementptr inbounds i8, ptr %155, i64 -32
  store ptr %156, ptr %20, align 8
  %157 = load ptr, ptr %9, align 8
  %158 = load ptr, ptr %20, align 8
  %159 = icmp ne ptr %157, %158
  br i1 %159, label %160, label %228

160:                                              ; preds = %153
  %161 = load ptr, ptr %9, align 8
  %162 = getelementptr inbounds nuw %struct.PROCLOCK, ptr %161, i32 0, i32 1
  %163 = load ptr, ptr %162, align 8
  %164 = load ptr, ptr %20, align 8
  %165 = getelementptr inbounds nuw %struct.PROCLOCK, ptr %164, i32 0, i32 1
  %166 = load ptr, ptr %165, align 8
  %167 = icmp eq ptr %163, %166
  br i1 %167, label %168, label %228

168:                                              ; preds = %160
  %169 = load ptr, ptr %20, align 8
  %170 = getelementptr inbounds nuw %struct.PROCLOCK, ptr %169, i32 0, i32 2
  %171 = load i32, ptr %170, align 8
  %172 = load i32, ptr %12, align 4
  %173 = and i32 %171, %172
  %174 = icmp ne i32 %173, 0
  br i1 %174, label %175, label %228

175:                                              ; preds = %168
  call void @llvm.lifetime.start.p0(i64 4, ptr %23) #9
  %176 = load ptr, ptr %20, align 8
  %177 = getelementptr inbounds nuw %struct.PROCLOCK, ptr %176, i32 0, i32 2
  %178 = load i32, ptr %177, align 8
  %179 = load i32, ptr %12, align 4
  %180 = and i32 %178, %179
  store i32 %180, ptr %23, align 4
  store i32 1, ptr %16, align 4
  br label %181

181:                                              ; preds = %217, %175
  %182 = load i32, ptr %16, align 4
  %183 = load i32, ptr %10, align 4
  %184 = icmp sle i32 %182, %183
  br i1 %184, label %185, label %220

185:                                              ; preds = %181
  %186 = load i32, ptr %23, align 4
  %187 = load i32, ptr %16, align 4
  %188 = shl i32 1, %187
  %189 = and i32 %186, %188
  %190 = icmp ne i32 %189, 0
  br i1 %190, label %191, label %216

191:                                              ; preds = %185
  %192 = load i32, ptr %16, align 4
  %193 = sext i32 %192 to i64
  %194 = getelementptr inbounds [10 x i32], ptr %13, i64 0, i64 %193
  %195 = load i32, ptr %194, align 4
  %196 = icmp sle i32 %195, 0
  br i1 %196, label %197, label %208

197:                                              ; preds = %191
  br label %198

198:                                              ; preds = %197
  br i1 true, label %199, label %201

199:                                              ; preds = %198
  %200 = call zeroext i1 @errstart_cold(i32 noundef 23, ptr noundef null) #10
  br i1 %200, label %203, label %205

201:                                              ; preds = %198
  %202 = call zeroext i1 @errstart(i32 noundef 23, ptr noundef null)
  br i1 %202, label %203, label %205

203:                                              ; preds = %201, %199
  %204 = call i32 (ptr, ...) @errmsg_internal(ptr noundef @.str.14)
  call void @errfinish(ptr noundef @.str.5, i32 noundef 1575, ptr noundef @__func__.LockCheckConflicts)
  br label %205

205:                                              ; preds = %203, %201, %199
  unreachable

206:                                              ; No predecessors!
  br label %207

207:                                              ; preds = %206
  br label %208

208:                                              ; preds = %207, %191
  %209 = load i32, ptr %16, align 4
  %210 = sext i32 %209 to i64
  %211 = getelementptr inbounds [10 x i32], ptr %13, i64 0, i64 %210
  %212 = load i32, ptr %211, align 4
  %213 = add i32 %212, -1
  store i32 %213, ptr %211, align 4
  %214 = load i32, ptr %14, align 4
  %215 = add i32 %214, -1
  store i32 %215, ptr %14, align 4
  br label %216

216:                                              ; preds = %208, %185
  br label %217

217:                                              ; preds = %216
  %218 = load i32, ptr %16, align 4
  %219 = add i32 %218, 1
  store i32 %219, ptr %16, align 4
  br label %181, !llvm.loop !24

220:                                              ; preds = %181
  %221 = load i32, ptr %14, align 4
  %222 = icmp eq i32 %221, 0
  br i1 %222, label %223, label %224

223:                                              ; preds = %220
  store i1 false, ptr %5, align 1
  store i32 1, ptr %17, align 4
  br label %225

224:                                              ; preds = %220
  store i32 0, ptr %17, align 4
  br label %225

225:                                              ; preds = %224, %223
  call void @llvm.lifetime.end.p0(i64 4, ptr %23) #9
  %226 = load i32, ptr %17, align 4
  switch i32 %226, label %229 [
    i32 0, label %227
  ]

227:                                              ; preds = %225
  br label %228

228:                                              ; preds = %227, %168, %160, %153
  store i32 0, ptr %17, align 4
  br label %229

229:                                              ; preds = %228, %225
  call void @llvm.lifetime.end.p0(i64 8, ptr %20) #9
  %230 = load i32, ptr %17, align 4
  switch i32 %230, label %239 [
    i32 0, label %231
  ]

231:                                              ; preds = %229
  br label %232

232:                                              ; preds = %231
  %233 = getelementptr inbounds nuw %struct.dlist_iter, ptr %15, i32 0, i32 0
  %234 = load ptr, ptr %233, align 8
  %235 = getelementptr inbounds nuw %struct.dlist_node, ptr %234, i32 0, i32 1
  %236 = load ptr, ptr %235, align 8
  %237 = getelementptr inbounds nuw %struct.dlist_iter, ptr %15, i32 0, i32 0
  store ptr %236, ptr %237, align 8
  br label %141, !llvm.loop !25

238:                                              ; preds = %141
  store i1 true, ptr %5, align 1
  store i32 1, ptr %17, align 4
  br label %239

239:                                              ; preds = %238, %229, %113, %105, %93, %40
  call void @llvm.lifetime.end.p0(i64 4, ptr %16) #9
  call void @llvm.lifetime.end.p0(i64 16, ptr %15) #9
  call void @llvm.lifetime.end.p0(i64 4, ptr %14) #9
  call void @llvm.lifetime.end.p0(i64 40, ptr %13) #9
  call void @llvm.lifetime.end.p0(i64 4, ptr %12) #9
  call void @llvm.lifetime.end.p0(i64 4, ptr %11) #9
  call void @llvm.lifetime.end.p0(i64 4, ptr %10) #9
  %240 = load i1, ptr %5, align 1
  ret i1 %240
}