; Function Attrs: nounwind uwtable
define dso_local noundef zeroext i1 @LockCheckConflicts(ptr noundef readonly captures(none) %0, i32 noundef %1, ptr noundef readonly captures(address) %2, ptr noundef readonly captures(address) %3) local_unnamed_addr #0 {
  %5 = alloca [10 x i32], align 16
  %6 = load i32, ptr %0, align 8
  %.fr = freeze i32 %6
  %7 = getelementptr inbounds nuw i8, ptr %0, i64 8
  %8 = load ptr, ptr %7, align 8
  %9 = sext i32 %1 to i64
  %10 = getelementptr inbounds i32, ptr %8, i64 %9
  %11 = load i32, ptr %10, align 4
  call void @llvm.lifetime.start.p0(i64 40, ptr nonnull %5) #17
  %12 = getelementptr inbounds nuw i8, ptr %2, i64 16
  %13 = load i32, ptr %12, align 8
  %14 = and i32 %13, %11
  %.not = icmp eq i32 %14, 0
  br i1 %.not, label %.loopexit, label %15

15:                                               ; preds = %4
  %16 = getelementptr inbounds nuw i8, ptr %3, i64 24
  %17 = load i32, ptr %16, align 8
  %.not6478 = icmp slt i32 %.fr, 1
  br i1 %.not6478, label %.loopexit, label %.lr.ph

.lr.ph:                                           ; preds = %15
  %18 = getelementptr inbounds nuw i8, ptr %2, i64 108
  %19 = add nuw i32 %.fr, 1
  %smax = tail call i32 @llvm.smax.i32(i32 %19, i32 2)
  %wide.trip.count = zext nneg i32 %smax to i64
  br label %20

20:                                               ; preds = %.lr.ph, %31
  %indvars.iv = phi i64 [ 1, %.lr.ph ], [ %indvars.iv.next, %31 ]
  %.04980 = phi i32 [ 0, %.lr.ph ], [ %.150, %31 ]
  %21 = trunc nuw nsw i64 %indvars.iv to i32
  %22 = shl nuw i32 1, %21
  %23 = and i32 %22, %11
  %24 = icmp eq i32 %23, 0
  br i1 %24, label %31, label %25

25:                                               ; preds = %20
  %26 = getelementptr inbounds nuw [10 x i32], ptr %18, i64 0, i64 %indvars.iv
  %27 = load i32, ptr %26, align 4
  %28 = and i32 %22, %17
  %.not72 = icmp ne i32 %28, 0
  %29 = sext i1 %.not72 to i32
  %spec.select = add i32 %27, %29
  %30 = add i32 %spec.select, %.04980
  br label %31

31:                                               ; preds = %20, %25
  %spec.select.sink = phi i32 [ %spec.select, %25 ], [ 0, %20 ]
  %.150 = phi i32 [ %30, %25 ], [ %.04980, %20 ]
  %32 = getelementptr inbounds nuw [10 x i32], ptr %5, i64 0, i64 %indvars.iv
  store i32 %spec.select.sink, ptr %32, align 4
  %indvars.iv.next = add nuw nsw i64 %indvars.iv, 1
  %exitcond = icmp eq i64 %indvars.iv.next, %wide.trip.count
  br i1 %exitcond, label %._crit_edge, label %20, !llvm.loop !19

._crit_edge:                                      ; preds = %31
  %33 = icmp eq i32 %.150, 0
  br i1 %33, label %.loopexit, label %34

34:                                               ; preds = %._crit_edge
  %35 = getelementptr inbounds nuw i8, ptr %3, i64 16
  %36 = load ptr, ptr %35, align 8
  %37 = load ptr, ptr @MyProc, align 8
  %38 = icmp eq ptr %36, %37
  br i1 %38, label %39, label %43

39:                                               ; preds = %34
  %40 = getelementptr inbounds nuw i8, ptr %37, i64 792
  %41 = load ptr, ptr %40, align 8
  %42 = icmp eq ptr %41, null
  br i1 %42, label %.loopexit, label %43

43:                                               ; preds = %39, %34
  %44 = getelementptr inbounds nuw i8, ptr %2, i64 14
  %45 = load i8, ptr %44, align 2
  %46 = icmp eq i8 %45, 1
  br i1 %46, label %.loopexit, label %47

47:                                               ; preds = %43
  %48 = getelementptr inbounds nuw i8, ptr %2, i64 24
  %49 = getelementptr inbounds nuw i8, ptr %2, i64 32
  %50 = load ptr, ptr %49, align 8
  %.not65 = icmp eq ptr %50, null
  %.not668796 = icmp eq ptr %50, %48
  %.not6687 = select i1 %.not65, i1 true, i1 %.not668796
  br i1 %.not6687, label %.loopexit, label %.lr.ph91.split

.lr.ph91.split:                                   ; preds = %47, %.thread
  %.25189 = phi i32 [ %.676, %.thread ], [ %.150, %47 ]
  %.sroa.0.088 = phi ptr [ %76, %.thread ], [ %50, %47 ]
  %51 = getelementptr inbounds i8, ptr %.sroa.0.088, i64 -32
  %.not67 = icmp eq ptr %3, %51
  br i1 %.not67, label %.thread, label %52

52:                                               ; preds = %.lr.ph91.split
  %53 = getelementptr inbounds i8, ptr %.sroa.0.088, i64 -16
  %54 = load ptr, ptr %53, align 8
  %55 = icmp eq ptr %36, %54
  br i1 %55, label %56, label %.thread

56:                                               ; preds = %52
  %57 = getelementptr inbounds i8, ptr %.sroa.0.088, i64 -8
  %58 = load i32, ptr %57, align 8
  %59 = and i32 %58, %11
  %.not68 = icmp eq i32 %59, 0
  br i1 %.not68, label %.thread, label %.preheader

.preheader:                                       ; preds = %56, %73
  %.45383 = phi i32 [ %.5, %73 ], [ %.25189, %56 ]
  %.15582 = phi i32 [ %74, %73 ], [ 1, %56 ]
  %60 = shl nuw i32 1, %.15582
  %61 = and i32 %60, %59
  %.not71 = icmp eq i32 %61, 0
  br i1 %.not71, label %73, label %62

62:                                               ; preds = %.preheader
  %63 = sext i32 %.15582 to i64
  %64 = getelementptr inbounds [10 x i32], ptr %5, i64 0, i64 %63
  %65 = load i32, ptr %64, align 4
  %66 = icmp slt i32 %65, 1
  br i1 %66, label %67, label %70

67:                                               ; preds = %62
  %68 = tail call zeroext i1 @errstart_cold(i32 noundef 23, ptr noundef null) #18
  tail call void @llvm.assume(i1 %68)
  %69 = tail call i32 (ptr, ...) @errmsg_internal(ptr noundef nonnull @.str.14) #17
  tail call void @errfinish(ptr noundef nonnull @.str.5, i32 noundef 1575, ptr noundef nonnull @__func__.LockCheckConflicts) #17
  unreachable

70:                                               ; preds = %62
  %71 = add nsw i32 %65, -1
  store i32 %71, ptr %64, align 4
  %72 = add i32 %.45383, -1
  br label %73

73:                                               ; preds = %.preheader, %70
  %.5 = phi i32 [ %72, %70 ], [ %.45383, %.preheader ]
  %74 = add i32 %.15582, 1
  %.not69 = icmp sgt i32 %74, %.fr
  br i1 %.not69, label %._crit_edge85, label %.preheader, !llvm.loop !20

._crit_edge85:                                    ; preds = %73
  %.not70.not = icmp eq i32 %.5, 0
  br i1 %.not70.not, label %.loopexit, label %.thread

.thread:                                          ; preds = %.lr.ph91.split, %52, %56, %._crit_edge85
  %.676 = phi i32 [ %.5, %._crit_edge85 ], [ %.25189, %56 ], [ %.25189, %52 ], [ %.25189, %.lr.ph91.split ]
  %75 = getelementptr inbounds nuw i8, ptr %.sroa.0.088, i64 8
  %76 = load ptr, ptr %75, align 8
  %.not66 = icmp eq ptr %76, %48
  br i1 %.not66, label %.loopexit, label %.lr.ph91.split, !llvm.loop !21

.loopexit:                                        ; preds = %._crit_edge85, %.thread, %47, %15, %43, %39, %._crit_edge, %4
  %.0 = phi i1 [ false, %4 ], [ false, %._crit_edge ], [ true, %39 ], [ true, %43 ], [ true, %47 ], [ false, %15 ], [ false, %._crit_edge85 ], [ true, %.thread ]
  call void @llvm.lifetime.end.p0(i64 40, ptr nonnull %5) #17
  ret i1 %.0
}